target datalayout = "e-m:e-p270:32:32-p271:32:32-p272:64:64-i64:64-i128:128-f80:128-n8:16:32:64-S128"
target triple = "x86_64-pc-linux-gnu"

; Function Attrs: nounwind uwtable
define internal i32 @errcode_for_dynamic_shared_memory() #0 {
  %1 = alloca i32, align 4
  %2 = call ptr @__errno_location() #10
  %3 = load i32, ptr %2, align 4
  %4 = icmp eq i32 %3, 27
  br i1 %4, label %9, label %5

5:                                                ; preds = %0
  %6 = call ptr @__errno_location() #10
  %7 = load i32, ptr %6, align 4
  %8 = icmp eq i32 %7, 12
  br i1 %8, label %9, label %11

9:                                                ; preds = %5, %0
  %10 = call i32 @errcode(i32 noundef 8389)
  store i32 %10, ptr %1, align 4
  br label %13

11:                                               ; preds = %5
  %12 = call i32 @errcode_for_file_access()
  store i32 %12, ptr %1, align 4
  br label %13

13:                                               ; preds = %11, %9
  %14 = load i32, ptr %1, align 4
  ret i32 %14
}