; Function Attrs: nounwind uwtable
define internal fastcc void @errcode_for_dynamic_shared_memory() unnamed_addr #0 {
  %1 = tail call ptr @__errno_location() #12
  %2 = load i32, ptr %1, align 4
  switch i32 %2, label %5 [
    i32 27, label %3
    i32 12, label %3
  ]

3:                                                ; preds = %0, %0
  %4 = tail call i32 @errcode(i32 noundef 8389) #11
  br label %7

5:                                                ; preds = %0
  %6 = tail call i32 @errcode_for_file_access() #11
  br label %7

7:                                                ; preds = %5, %3
  ret void
}